; Function Attrs: mustprogress nofree norecurse nosync nounwind memory(argmem: write) uwtable
define void @_ZN17double_conversion6Bignum12AssignUInt64Em(ptr noundef nonnull writeonly align 4 captures(none) dereferenceable(516) initializes((0, 4)) %0, i64 noundef %1) local_unnamed_addr #2 align 2 {
  store i16 0, ptr %0, align 4, !tbaa !3
  %3 = getelementptr inbounds nuw i8, ptr %0, i64 2
  store i16 0, ptr %3, align 2, !tbaa !8
  %.not6 = icmp eq i64 %1, 0
  br i1 %.not6, label %5, label %.lr.ph

.lr.ph:                                           ; preds = %2
  %4 = getelementptr inbounds nuw i8, ptr %0, i64 4
  br label %6

._crit_edge:                                      ; preds = %6
  store i16 %12, ptr %0, align 4, !tbaa !3
  br label %5

5:                                                ; preds = %._crit_edge, %2
  ret void

6:                                                ; preds = %.lr.ph, %6
  %indvars.iv = phi i64 [ 0, %.lr.ph ], [ %indvars.iv.next, %6 ]
  %.057 = phi i64 [ %1, %.lr.ph ], [ %11, %6 ]
  %7 = phi i16 [ 0, %.lr.ph ], [ %12, %6 ]
  %8 = trunc i64 %.057 to i32
  %9 = and i32 %8, 268435455
  %10 = getelementptr inbounds nuw [128 x i32], ptr %4, i64 0, i64 %indvars.iv
  store i32 %9, ptr %10, align 4, !tbaa !9
  %11 = lshr i64 %.057, 28
  %12 = add i16 %7, 1
  %indvars.iv.next = add nuw nsw i64 %indvars.iv, 1
  %.not = icmp ult i64 %.057, 268435456
  br i1 %.not, label %._crit_edge, label %6, !llvm.loop !11
}